target datalayout = "e-m:e-p270:32:32-p271:32:32-p272:64:64-i64:64-i128:128-f80:128-n8:16:32:64-S128"
target triple = "x86_64-pc-linux-gnu"

%struct.URLContext = type { ptr, ptr, ptr, ptr, i32, i32, i32, i32, %struct.AVIOInterruptCB, i64, ptr, ptr, i32 }
%struct.AVIOInterruptCB = type { ptr, ptr }
%struct.URLProtocol = type { ptr, ptr, ptr, ptr, ptr, ptr, ptr, ptr, ptr, ptr, ptr, ptr, ptr, ptr, ptr, ptr, i32, i32, ptr, ptr, ptr, ptr, ptr, ptr, ptr }

; Function Attrs: nounwind uwtable
define i64 @ffurl_seek2(ptr noundef %0, i64 noundef %1, i32 noundef %2) #1 {
  %4 = alloca i64, align 8
  %5 = alloca ptr, align 8
  %6 = alloca i64, align 8
  %7 = alloca i32, align 4
  %8 = alloca ptr, align 8
  %9 = alloca i64, align 8
  %10 = alloca i32, align 4
  store ptr %0, ptr %5, align 8, !tbaa !4
  store i64 %1, ptr %6, align 8, !tbaa !47
  store i32 %2, ptr %7, align 4, !tbaa !21
  call void @llvm.lifetime.start.p0(i64 8, ptr %8) #10
  %11 = load ptr, ptr %5, align 8, !tbaa !4
  store ptr %11, ptr %8, align 8, !tbaa !22
  call void @llvm.lifetime.start.p0(i64 8, ptr %9) #10
  %12 = load ptr, ptr %8, align 8, !tbaa !22
  %13 = getelementptr inbounds nuw %struct.URLContext, ptr %12, i32 0, i32 1
  %14 = load ptr, ptr %13, align 8, !tbaa !38
  %15 = getelementptr inbounds nuw %struct.URLProtocol, ptr %14, i32 0, i32 7
  %16 = load ptr, ptr %15, align 8, !tbaa !87
  %17 = icmp ne ptr %16, null
  br i1 %17, label %19, label %18

18:                                               ; preds = %3
  store i64 -38, ptr %4, align 8
  store i32 1, ptr %10, align 4
  br label %31

19:                                               ; preds = %3
  %20 = load ptr, ptr %8, align 8, !tbaa !22
  %21 = getelementptr inbounds nuw %struct.URLContext, ptr %20, i32 0, i32 1
  %22 = load ptr, ptr %21, align 8, !tbaa !38
  %23 = getelementptr inbounds nuw %struct.URLProtocol, ptr %22, i32 0, i32 7
  %24 = load ptr, ptr %23, align 8, !tbaa !87
  %25 = load ptr, ptr %8, align 8, !tbaa !22
  %26 = load i64, ptr %6, align 8, !tbaa !47
  %27 = load i32, ptr %7, align 4, !tbaa !21
  %28 = and i32 %27, -131073
  %29 = call i64 %24(ptr noundef %25, i64 noundef %26, i32 noundef %28)
  store i64 %29, ptr %9, align 8, !tbaa !47
  %30 = load i64, ptr %9, align 8, !tbaa !47
  store i64 %30, ptr %4, align 8
  store i32 1, ptr %10, align 4
  br label %31

31:                                               ; preds = %19, %18
  call void @llvm.lifetime.end.p0(i64 8, ptr %9) #10
  call void @llvm.lifetime.end.p0(i64 8, ptr %8) #10
  %32 = load i64, ptr %4, align 8
  ret i64 %32
}