; Function Attrs: nounwind uwtable
define i64 @ffurl_seek2(ptr noundef %0, i64 noundef %1, i32 noundef %2) #3 {
  %4 = getelementptr inbounds nuw i8, ptr %0, i64 8
  %5 = load ptr, ptr %4, align 8, !tbaa !21
  %6 = getelementptr inbounds nuw i8, ptr %5, i64 56
  %7 = load ptr, ptr %6, align 8, !tbaa !40
  %.not = icmp eq ptr %7, null
  br i1 %.not, label %11, label %8

8:                                                ; preds = %3
  %9 = and i32 %2, -131073
  %10 = tail call i64 %7(ptr noundef nonnull %0, i64 noundef %1, i32 noundef %9) #12
  br label %11

11:                                               ; preds = %3, %8
  %.0 = phi i64 [ %10, %8 ], [ -38, %3 ]
  ret i64 %.0
}